; Function Attrs: nounwind uwtable
define ptr @l_List_foldr___at_Lean_Omega_IntList_sum___spec__1(ptr noundef %0, ptr noundef %1) local_unnamed_addr #0 {
  %3 = ptrtoint ptr %1 to i64
  %4 = and i64 %3, 1
  %.not.i12 = icmp eq i64 %4, 0
  br i1 %.not.i12, label %8, label %5

5:                                                ; preds = %2
  %6 = lshr i64 %3, 1
  %7 = trunc i64 %6 to i32
  br label %lean_obj_tag.exit

8:                                                ; preds = %2
  %9 = getelementptr i8, ptr %1, i64 4
  %.val.i = load i32, ptr %9, align 4
  %10 = lshr i32 %.val.i, 24
  br label %lean_obj_tag.exit

lean_obj_tag.exit:                                ; preds = %5, %8
  %.0.i = phi i32 [ %7, %5 ], [ %10, %8 ]
  %11 = icmp eq i32 %.0.i, 0
  br i1 %11, label %12, label %21

12:                                               ; preds = %lean_obj_tag.exit
  %13 = ptrtoint ptr %0 to i64
  %14 = and i64 %13, 1
  %.not17 = icmp eq i64 %14, 0
  br i1 %.not17, label %15, label %lean_inc.exit

15:                                               ; preds = %12
  %.val.i13 = load i32, ptr %0, align 4, !tbaa !8
  %16 = icmp sgt i32 %.val.i13, 0
  br i1 %16, label %17, label %19, !prof !11

17:                                               ; preds = %15
  %18 = add nuw i32 %.val.i13, 1
  store i32 %18, ptr %0, align 4, !tbaa !8
  br label %lean_inc.exit

19:                                               ; preds = %15
  %.not.i14 = icmp eq i32 %.val.i13, 0
  br i1 %.not.i14, label %lean_inc.exit, label %20

20:                                               ; preds = %19
  tail call void @lean_inc_ref_cold(ptr noundef nonnull %0) #3
  br label %lean_inc.exit

21:                                               ; preds = %lean_obj_tag.exit
  %22 = getelementptr inbounds nuw i8, ptr %1, i64 8
  %23 = load ptr, ptr %22, align 8, !tbaa !4
  %24 = getelementptr inbounds nuw i8, ptr %1, i64 16
  %25 = load ptr, ptr %24, align 8, !tbaa !4
  %26 = tail call ptr @l_List_foldr___at_Lean_Omega_IntList_sum___spec__1(ptr noundef %0, ptr noundef %25)
  %27 = ptrtoint ptr %23 to i64
  %28 = and i64 %27, 1
  %.not.i15 = icmp eq i64 %28, 0
  %.pre20 = ptrtoint ptr %26 to i64
  %.pre = and i64 %.pre20, 1
  %29 = icmp eq i64 %.pre, 0
  br i1 %.not.i15, label %lean_int_add.exit, label %30, !prof !12

30:                                               ; preds = %21
  br i1 %29, label %lean_int_add.exit.thread23, label %32, !prof !12

lean_int_add.exit.thread23:                       ; preds = %30
  %31 = tail call ptr @lean_int_big_add(ptr noundef %23, ptr noundef %26) #3
  br label %48

32:                                               ; preds = %30
  %33 = shl i64 %27, 31
  %34 = ashr i64 %33, 32
  %35 = shl i64 %.pre20, 31
  %36 = ashr i64 %35, 32
  %37 = add nsw i64 %36, %34
  %38 = add nsw i64 %37, 2147483648
  %39 = icmp ult i64 %38, 4294967296
  br i1 %39, label %40, label %45, !prof !11

40:                                               ; preds = %32
  %41 = shl nsw i64 %37, 1
  %42 = and i64 %41, 8589934590
  %43 = or disjoint i64 %42, 1
  %44 = inttoptr i64 %43 to ptr
  br label %lean_inc.exit

45:                                               ; preds = %32
  %46 = tail call ptr @lean_big_int64_to_int(i64 noundef range(i64 -4611686016279904256, 4611686018427387905) %37) #3
  br label %lean_inc.exit

lean_int_add.exit:                                ; preds = %21
  %47 = tail call ptr @lean_int_big_add(ptr noundef %23, ptr noundef %26) #3
  br i1 %29, label %48, label %lean_inc.exit

48:                                               ; preds = %lean_int_add.exit.thread23, %lean_int_add.exit
  %49 = phi ptr [ %31, %lean_int_add.exit.thread23 ], [ %47, %lean_int_add.exit ]
  %50 = load i32, ptr %26, align 4, !tbaa !8
  %51 = icmp sgt i32 %50, 1
  br i1 %51, label %52, label %54, !prof !11

52:                                               ; preds = %48
  %53 = add nsw i32 %50, -1
  store i32 %53, ptr %26, align 4, !tbaa !8
  br label %lean_inc.exit

54:                                               ; preds = %48
  %.not.i = icmp eq i32 %50, 0
  br i1 %.not.i, label %lean_inc.exit, label %55

55:                                               ; preds = %54
  tail call void @lean_dec_ref_cold(ptr noundef nonnull %26) #3
  br label %lean_inc.exit

lean_inc.exit:                                    ; preds = %45, %40, %lean_int_add.exit, %52, %54, %55, %12, %17, %19, %20
  %.0 = phi ptr [ %0, %20 ], [ %0, %19 ], [ %0, %17 ], [ %0, %12 ], [ %49, %55 ], [ %49, %54 ], [ %49, %52 ], [ %47, %lean_int_add.exit ], [ %46, %45 ], [ %44, %40 ]
  ret ptr %.0
}